target datalayout = "e-m:e-p270:32:32-p271:32:32-p272:64:64-i64:64-i128:128-f80:128-n8:16:32:64-S128"
target triple = "x86_64-pc-linux-gnu"

%struct.curl_mimepart = type { ptr, ptr, i32, i32, ptr, ptr, ptr, ptr, ptr, ptr, ptr, ptr, ptr, ptr, ptr, i64, %struct.mime_state, ptr, %struct.mime_encoder_state, i64 }
%struct.mime_state = type { i32, ptr, i64 }
%struct.mime_encoder_state = type { i64, i64, i64, [256 x i8] }

; Function Attrs: nounwind uwtable
define internal i64 @mime_mem_read(ptr noundef %0, i64 noundef %1, i64 noundef %2, ptr noundef %3) #0 {
  %5 = alloca i64, align 8
  %6 = alloca ptr, align 8
  %7 = alloca i64, align 8
  %8 = alloca i64, align 8
  %9 = alloca ptr, align 8
  %10 = alloca ptr, align 8
  %11 = alloca i64, align 8
  %12 = alloca i32, align 4
  store ptr %0, ptr %6, align 8, !tbaa !49
  store i64 %1, ptr %7, align 8, !tbaa !50
  store i64 %2, ptr %8, align 8, !tbaa !50
  store ptr %3, ptr %9, align 8, !tbaa !22
  call void @llvm.lifetime.start.p0(i64 8, ptr %10) #8
  %13 = load ptr, ptr %9, align 8, !tbaa !22
  store ptr %13, ptr %10, align 8, !tbaa !4
  call void @llvm.lifetime.start.p0(i64 8, ptr %11) #8
  %14 = load ptr, ptr %10, align 8, !tbaa !4
  %15 = getelementptr inbounds nuw %struct.curl_mimepart, ptr %14, i32 0, i32 15
  %16 = load i64, ptr %15, align 8, !tbaa !32
  %17 = load ptr, ptr %10, align 8, !tbaa !4
  %18 = getelementptr inbounds nuw %struct.curl_mimepart, ptr %17, i32 0, i32 16
  %19 = getelementptr inbounds nuw %struct.mime_state, ptr %18, i32 0, i32 2
  %20 = load i64, ptr %19, align 8, !tbaa !62
  %21 = sub nsw i64 %16, %20
  %22 = call i64 @curlx_sotouz(i64 noundef %21)
  store i64 %22, ptr %11, align 8, !tbaa !50
  %23 = load i64, ptr %8, align 8, !tbaa !50
  %24 = icmp ne i64 %23, 0
  br i1 %24, label %26, label %25

25:                                               ; preds = %4
  store i64 -2, ptr %5, align 8
  store i32 1, ptr %12, align 4
  br label %49

26:                                               ; preds = %4
  %27 = load i64, ptr %11, align 8, !tbaa !50
  %28 = load i64, ptr %8, align 8, !tbaa !50
  %29 = icmp ugt i64 %27, %28
  br i1 %29, label %30, label %32

30:                                               ; preds = %26
  %31 = load i64, ptr %8, align 8, !tbaa !50
  store i64 %31, ptr %11, align 8, !tbaa !50
  br label %32

32:                                               ; preds = %30, %26
  %33 = load i64, ptr %11, align 8, !tbaa !50
  %34 = icmp ne i64 %33, 0
  br i1 %34, label %35, label %47

35:                                               ; preds = %32
  %36 = load ptr, ptr %6, align 8, !tbaa !49
  %37 = load ptr, ptr %10, align 8, !tbaa !4
  %38 = getelementptr inbounds nuw %struct.curl_mimepart, ptr %37, i32 0, i32 4
  %39 = load ptr, ptr %38, align 8, !tbaa !30
  %40 = load ptr, ptr %10, align 8, !tbaa !4
  %41 = getelementptr inbounds nuw %struct.curl_mimepart, ptr %40, i32 0, i32 16
  %42 = getelementptr inbounds nuw %struct.mime_state, ptr %41, i32 0, i32 2
  %43 = load i64, ptr %42, align 8, !tbaa !62
  %44 = call i64 @curlx_sotouz(i64 noundef %43)
  %45 = getelementptr inbounds nuw i8, ptr %39, i64 %44
  %46 = load i64, ptr %11, align 8, !tbaa !50
  call void @llvm.memcpy.p0.p0.i64(ptr align 1 %36, ptr align 1 %45, i64 %46, i1 false)
  br label %47

47:                                               ; preds = %35, %32
  %48 = load i64, ptr %11, align 8, !tbaa !50
  store i64 %48, ptr %5, align 8
  store i32 1, ptr %12, align 4
  br label %49

49:                                               ; preds = %47, %25
  call void @llvm.lifetime.end.p0(i64 8, ptr %11) #8
  call void @llvm.lifetime.end.p0(i64 8, ptr %10) #8
  %50 = load i64, ptr %5, align 8
  ret i64 %50
}