; Function Attrs: nounwind uwtable
define internal i64 @mime_mem_read(ptr noundef writeonly captures(none) %0, i64 %1, i64 noundef %2, ptr noundef readonly captures(none) %3) #0 {
  %5 = getelementptr inbounds nuw i8, ptr %3, i64 112
  %6 = load i64, ptr %5, align 8, !tbaa !22
  %7 = getelementptr inbounds nuw i8, ptr %3, i64 136
  %8 = load i64, ptr %7, align 8, !tbaa !52
  %9 = sub nsw i64 %6, %8
  %10 = tail call i64 @curlx_sotouz(i64 noundef %9) #18
  %.not = icmp eq i64 %2, 0
  br i1 %.not, label %18, label %11

11:                                               ; preds = %4
  %.not16 = icmp eq i64 %10, 0
  br i1 %.not16, label %18, label %12

12:                                               ; preds = %11
  %spec.select = tail call i64 @llvm.umin.i64(i64 %10, i64 %2)
  %13 = getelementptr inbounds nuw i8, ptr %3, i64 24
  %14 = load ptr, ptr %13, align 8, !tbaa !20
  %15 = load i64, ptr %7, align 8, !tbaa !52
  %16 = tail call i64 @curlx_sotouz(i64 noundef %15) #18
  %17 = getelementptr inbounds nuw i8, ptr %14, i64 %16
  tail call void @llvm.memcpy.p0.p0.i64(ptr align 1 %0, ptr align 1 %17, i64 %spec.select, i1 false)
  br label %18

18:                                               ; preds = %11, %12, %4
  %.013 = phi i64 [ -2, %4 ], [ %spec.select, %12 ], [ 0, %11 ]
  ret i64 %.013
}